target datalayout = "e-m:e-p270:32:32-p271:32:32-p272:64:64-i64:64-i128:128-f80:128-n8:16:32:64-S128"
target triple = "x86_64-unknown-linux-gnu"

%struct.RISCVAclintMTimerState = type { %struct.SysBusDevice, i64, ptr, ptr, %struct.MemoryRegion, i32, i32, i32, i32, i32, i32, ptr }
%struct.SysBusDevice = type { %struct.DeviceState, i32, [32 x %struct.anon], i32, [32 x i32] }
%struct.DeviceState = type { %struct.Object, ptr, ptr, i8, i8, i64, ptr, i32, i8, ptr, %struct.NamedGPIOListHead, %struct.NamedClockListHead, %struct.BusStateHead, i32, i32, i32, %struct.ResettableState, ptr, %struct.MemReentrancyGuard }
%struct.Object = type { ptr, ptr, ptr, i32, ptr }
%struct.NamedGPIOListHead = type { ptr }
%struct.NamedClockListHead = type { ptr }
%struct.BusStateHead = type { ptr }
%struct.ResettableState = type { i32, i8, i8 }
%struct.MemReentrancyGuard = type { i8 }
%struct.anon = type { i64, ptr }
%struct.MemoryRegion = type { %struct.Object, i8, i8, i8, i8, i8, i8, i8, i8, i8, i8, ptr, ptr, ptr, ptr, ptr, ptr, i32, i128, i64, ptr, i64, i8, i8, i8, i8, i8, ptr, i64, i32, %union.anon, %union.anon.0, %union.anon.1, ptr, i32, ptr, ptr, i8 }
%union.anon = type { %struct.QTailQLink }
%struct.QTailQLink = type { ptr, ptr }
%union.anon.0 = type { %struct.QTailQLink }
%union.anon.1 = type { %struct.QTailQLink }
%struct.CPUState = type { %struct.DeviceState, ptr, i32, i32, ptr, i32, i8, i8, ptr, i8, i8, i8, i8, i8, i8, i8, i8, i32, i32, i32, i32, i64, i64, i64, [1 x %struct.__jmp_buf_tag], %struct.QemuMutex, %struct.anon.2, ptr, i32, ptr, ptr, ptr, ptr, i32, i32, %union.anon.3, %union.anon.4, %union.anon.5, ptr, ptr, i64, i32, ptr, ptr, ptr, i32, i64, i32, %struct.QemuLockCnt, [1 x i64], ptr, i32, i32, i32, i32, i32, ptr, i8, i8, i64, i8, i8, ptr, [8 x i8], [0 x i8], %struct.CPUNegativeOffsetState }
%struct.__jmp_buf_tag = type { [8 x i64], i32, %struct.__sigset_t }
%struct.__sigset_t = type { [16 x i64] }
%struct.QemuMutex = type { %union.pthread_mutex_t, i8 }
%union.pthread_mutex_t = type { %struct.__pthread_mutex_s }
%struct.__pthread_mutex_s = type { i32, i32, i32, i32, i32, i16, i16, %struct.__pthread_internal_list }
%struct.__pthread_internal_list = type { ptr, ptr }
%struct.anon.2 = type { ptr, ptr }
%union.anon.3 = type { %struct.QTailQLink }
%union.anon.4 = type { %struct.QTailQLink }
%union.anon.5 = type { %struct.QTailQLink }
%struct.QemuLockCnt = type { i32 }
%struct.CPUNegativeOffsetState = type { %struct.CPUTLB, %union.IcountDecr, i8, [11 x i8] }
%struct.CPUTLB = type { %struct.CPUTLBCommon, [16 x %struct.CPUTLBDesc], [16 x %struct.CPUTLBDescFast] }
%struct.CPUTLBCommon = type { %struct.QemuSpin, i16, i64, i64, i64 }
%struct.QemuSpin = type { i32 }
%struct.CPUTLBDesc = type { i64, i64, i64, i64, i64, i64, [8 x %union.CPUTLBEntry], [8 x %struct.CPUTLBEntryFull], ptr }
%union.CPUTLBEntry = type { %struct.anon.6 }
%struct.anon.6 = type { i64, i64, i64, i64 }
%struct.CPUTLBEntryFull = type { i64, i64, %struct.MemTxAttrs, i8, i8, [3 x i8], %union.anon.7 }
%struct.MemTxAttrs = type { i32 }
%union.anon.7 = type { %struct.anon.8 }
%struct.anon.8 = type { i8, i8, i8 }
%struct.CPUTLBDescFast = type { i64, ptr }
%union.IcountDecr = type { i32 }

@.str.22 = private unnamed_addr constant [35 x i8] c"aclint-mtimer: invalid hartid: %zu\00", align 1
@.str.23 = private unnamed_addr constant [34 x i8] c"aclint-mtimer: invalid read: %08x\00", align 1
@qemu_loglevel = external global i32, align 4

; Function Attrs: nounwind sspstrong uwtable
define internal i64 @muldiv64(i64 noundef %a, i32 noundef %b, i32 noundef %c) #0 {
entry:
  %a.addr = alloca i64, align 8
  %b.addr = alloca i32, align 4
  %c.addr = alloca i32, align 4
  store i64 %a, ptr %a.addr, align 8
  store i32 %b, ptr %b.addr, align 4
  store i32 %c, ptr %c.addr, align 4
  %0 = load i64, ptr %a.addr, align 8
  %conv = zext i64 %0 to i128
  %1 = load i32, ptr %b.addr, align 4
  %conv1 = zext i32 %1 to i128
  %mul = mul i128 %conv, %conv1
  %2 = load i32, ptr %c.addr, align 4
  %conv2 = zext i32 %2 to i128
  %div = sdiv i128 %mul, %conv2
  %conv3 = trunc i128 %div to i64
  ret i64 %conv3
}

; Function Attrs: nounwind sspstrong uwtable
define internal i64 @cpu_riscv_read_rtc_raw(i32 noundef %timebase_freq) #0 {
entry:
  %timebase_freq.addr = alloca i32, align 4
  store i32 %timebase_freq, ptr %timebase_freq.addr, align 4
  %call = call i64 @qemu_clock_get_ns(i32 noundef 1)
  %0 = load i32, ptr %timebase_freq.addr, align 4
  %call1 = call i64 @muldiv64(i64 noundef %call, i32 noundef %0, i32 noundef 1000000000)
  ret i64 %call1
}

; Function Attrs: nounwind sspstrong uwtable
define internal i64 @cpu_riscv_read_rtc(ptr noundef %opaque) #0 {
entry:
  %opaque.addr = alloca ptr, align 8
  %mtimer = alloca ptr, align 8
  store ptr %opaque, ptr %opaque.addr, align 8
  %0 = load ptr, ptr %opaque.addr, align 8
  store ptr %0, ptr %mtimer, align 8
  %1 = load ptr, ptr %mtimer, align 8
  %timebase_freq = getelementptr inbounds %struct.RISCVAclintMTimerState, ptr %1, i32 0, i32 10
  %2 = load i32, ptr %timebase_freq, align 4
  %call = call i64 @cpu_riscv_read_rtc_raw(i32 noundef %2)
  %3 = load ptr, ptr %mtimer, align 8
  %time_delta = getelementptr inbounds %struct.RISCVAclintMTimerState, ptr %3, i32 0, i32 1
  %4 = load i64, ptr %time_delta, align 16
  %add = add i64 %call, %4
  ret i64 %add
}

; Function Attrs: nounwind sspstrong uwtable
define internal zeroext i1 @qemu_loglevel_mask(i32 noundef %mask) #0 {
entry:
  %mask.addr = alloca i32, align 4
  store i32 %mask, ptr %mask.addr, align 4
  %0 = load i32, ptr @qemu_loglevel, align 4
  %1 = load i32, ptr %mask.addr, align 4
  %and = and i32 %0, %1
  %cmp = icmp ne i32 %and, 0
  ret i1 %cmp
}

; Function Attrs: nounwind sspstrong uwtable
define internal ptr @cpu_env(ptr noundef %cpu) #0 {
entry:
  %cpu.addr = alloca ptr, align 8
  store ptr %cpu, ptr %cpu.addr, align 8
  %0 = load ptr, ptr %cpu.addr, align 8
  %add.ptr = getelementptr %struct.CPUState, ptr %0, i64 1
  ret ptr %add.ptr
}

; Function Attrs: nounwind sspstrong uwtable
define internal i64 @riscv_aclint_mtimer_read(ptr noundef %opaque, i64 noundef %addr, i32 noundef %size) #0 {
entry:
  %retval = alloca i64, align 8
  %opaque.addr = alloca ptr, align 8
  %addr.addr = alloca i64, align 8
  %size.addr = alloca i32, align 4
  %mtimer = alloca ptr, align 8
  %hartid = alloca i64, align 8
  %cpu = alloca ptr, align 8
  %env = alloca ptr, align 8
  %timecmp = alloca i64, align 8
  %timecmp34 = alloca i64, align 8
  %rtc = alloca i64, align 8
  store ptr %opaque, ptr %opaque.addr, align 8
  store i64 %addr, ptr %addr.addr, align 8
  store i32 %size, ptr %size.addr, align 4
  %0 = load ptr, ptr %opaque.addr, align 8
  store ptr %0, ptr %mtimer, align 8
  %1 = load i64, ptr %addr.addr, align 8
  %2 = load ptr, ptr %mtimer, align 8
  %timecmp_base = getelementptr inbounds %struct.RISCVAclintMTimerState, ptr %2, i32 0, i32 7
  %3 = load i32, ptr %timecmp_base, align 8
  %conv = zext i32 %3 to i64
  %cmp = icmp uge i64 %1, %conv
  br i1 %cmp, label %land.lhs.true, label %if.else53

land.lhs.true:                                    ; preds = %entry
  %4 = load i64, ptr %addr.addr, align 8
  %5 = load ptr, ptr %mtimer, align 8
  %timecmp_base2 = getelementptr inbounds %struct.RISCVAclintMTimerState, ptr %5, i32 0, i32 7
  %6 = load i32, ptr %timecmp_base2, align 8
  %7 = load ptr, ptr %mtimer, align 8
  %num_harts = getelementptr inbounds %struct.RISCVAclintMTimerState, ptr %7, i32 0, i32 6
  %8 = load i32, ptr %num_harts, align 4
  %shl = shl i32 %8, 3
  %add = add i32 %6, %shl
  %conv3 = zext i32 %add to i64
  %cmp4 = icmp ult i64 %4, %conv3
  br i1 %cmp4, label %if.then, label %if.else53

if.then:                                          ; preds = %land.lhs.true
  %9 = load ptr, ptr %mtimer, align 8
  %hartid_base = getelementptr inbounds %struct.RISCVAclintMTimerState, ptr %9, i32 0, i32 5
  %10 = load i32, ptr %hartid_base, align 16
  %conv6 = zext i32 %10 to i64
  %11 = load i64, ptr %addr.addr, align 8
  %12 = load ptr, ptr %mtimer, align 8
  %timecmp_base7 = getelementptr inbounds %struct.RISCVAclintMTimerState, ptr %12, i32 0, i32 7
  %13 = load i32, ptr %timecmp_base7, align 8
  %conv8 = zext i32 %13 to i64
  %sub = sub i64 %11, %conv8
  %shr = lshr i64 %sub, 3
  %add9 = add i64 %conv6, %shr
  store i64 %add9, ptr %hartid, align 8
  %14 = load i64, ptr %hartid, align 8
  %call = call ptr @cpu_by_arch_id(i64 noundef %14)
  store ptr %call, ptr %cpu, align 8
  %15 = load ptr, ptr %cpu, align 8
  %tobool = icmp ne ptr %15, null
  br i1 %tobool, label %cond.true, label %cond.false

cond.true:                                        ; preds = %if.then
  %16 = load ptr, ptr %cpu, align 8
  %call10 = call ptr @cpu_env(ptr noundef %16)
  br label %cond.end

cond.false:                                       ; preds = %if.then
  br label %cond.end

cond.end:                                         ; preds = %cond.false, %cond.true
  %cond = phi ptr [ %call10, %cond.true ], [ null, %cond.false ]
  store ptr %cond, ptr %env, align 8
  %17 = load ptr, ptr %env, align 8
  %tobool11 = icmp ne ptr %17, null
  br i1 %tobool11, label %if.else, label %if.then12

if.then12:                                        ; preds = %cond.end
  br label %do.body

do.body:                                          ; preds = %if.then12
  %call13 = call zeroext i1 @qemu_loglevel_mask(i32 noundef 2048)
  %lnot = xor i1 %call13, true
  %lnot14 = xor i1 %lnot, true
  %lnot.ext = zext i1 %lnot14 to i32
  %conv15 = sext i32 %lnot.ext to i64
  %tobool16 = icmp ne i64 %conv15, 0
  br i1 %tobool16, label %if.then17, label %if.end

if.then17:                                        ; preds = %do.body
  %18 = load i64, ptr %hartid, align 8
  call void (ptr, ...) @qemu_log(ptr noundef @.str.22, i64 noundef %18)
  br label %if.end

if.end:                                           ; preds = %if.then17, %do.body
  br label %do.end

do.end:                                           ; preds = %if.end
  br label %if.end52

if.else:                                          ; preds = %cond.end
  %19 = load i64, ptr %addr.addr, align 8
  %and = and i64 %19, 7
  %cmp18 = icmp eq i64 %and, 0
  br i1 %cmp18, label %if.then20, label %if.else29

if.then20:                                        ; preds = %if.else
  %20 = load ptr, ptr %mtimer, align 8
  %timecmp21 = getelementptr inbounds %struct.RISCVAclintMTimerState, ptr %20, i32 0, i32 2
  %21 = load ptr, ptr %timecmp21, align 8
  %22 = load i64, ptr %hartid, align 8
  %arrayidx = getelementptr i64, ptr %21, i64 %22
  %23 = load i64, ptr %arrayidx, align 8
  store i64 %23, ptr %timecmp, align 8
  %24 = load i32, ptr %size.addr, align 4
  %cmp22 = icmp eq i32 %24, 4
  br i1 %cmp22, label %cond.true24, label %cond.false26

cond.true24:                                      ; preds = %if.then20
  %25 = load i64, ptr %timecmp, align 8
  %and25 = and i64 %25, 4294967295
  br label %cond.end27

cond.false26:                                     ; preds = %if.then20
  %26 = load i64, ptr %timecmp, align 8
  br label %cond.end27

cond.end27:                                       ; preds = %cond.false26, %cond.true24
  %cond28 = phi i64 [ %and25, %cond.true24 ], [ %26, %cond.false26 ]
  store i64 %cond28, ptr %retval, align 8
  br label %return

if.else29:                                        ; preds = %if.else
  %27 = load i64, ptr %addr.addr, align 8
  %and30 = and i64 %27, 7
  %cmp31 = icmp eq i64 %and30, 4
  br i1 %cmp31, label %if.then33, label %if.else39

if.then33:                                        ; preds = %if.else29
  %28 = load ptr, ptr %mtimer, align 8
  %timecmp35 = getelementptr inbounds %struct.RISCVAclintMTimerState, ptr %28, i32 0, i32 2
  %29 = load ptr, ptr %timecmp35, align 8
  %30 = load i64, ptr %hartid, align 8
  %arrayidx36 = getelementptr i64, ptr %29, i64 %30
  %31 = load i64, ptr %arrayidx36, align 8
  store i64 %31, ptr %timecmp34, align 8
  %32 = load i64, ptr %timecmp34, align 8
  %shr37 = lshr i64 %32, 32
  %and38 = and i64 %shr37, 4294967295
  store i64 %and38, ptr %retval, align 8
  br label %return

if.else39:                                        ; preds = %if.else29
  br label %do.body40

do.body40:                                        ; preds = %if.else39
  %call41 = call zeroext i1 @qemu_loglevel_mask(i32 noundef 1024)
  %lnot42 = xor i1 %call41, true
  %lnot44 = xor i1 %lnot42, true
  %lnot.ext45 = zext i1 %lnot44 to i32
  %conv46 = sext i32 %lnot.ext45 to i64
  %tobool47 = icmp ne i64 %conv46, 0
  br i1 %tobool47, label %if.then48, label %if.end50

if.then48:                                        ; preds = %do.body40
  %33 = load i64, ptr %addr.addr, align 8
  %conv49 = trunc i64 %33 to i32
  call void (ptr, ...) @qemu_log(ptr noundef @.str.23, i32 noundef %conv49)
  br label %if.end50

if.end50:                                         ; preds = %if.then48, %do.body40
  br label %do.end51

do.end51:                                         ; preds = %if.end50
  store i64 0, ptr %retval, align 8
  br label %return

if.end52:                                         ; preds = %do.end
  br label %if.end78

if.else53:                                        ; preds = %land.lhs.true, %entry
  %34 = load i64, ptr %addr.addr, align 8
  %35 = load ptr, ptr %mtimer, align 8
  %time_base = getelementptr inbounds %struct.RISCVAclintMTimerState, ptr %35, i32 0, i32 8
  %36 = load i32, ptr %time_base, align 4
  %conv54 = zext i32 %36 to i64
  %cmp55 = icmp eq i64 %34, %conv54
  br i1 %cmp55, label %if.then57, label %if.else66

if.then57:                                        ; preds = %if.else53
  %37 = load ptr, ptr %mtimer, align 8
  %call58 = call i64 @cpu_riscv_read_rtc(ptr noundef %37)
  store i64 %call58, ptr %rtc, align 8
  %38 = load i32, ptr %size.addr, align 4
  %cmp59 = icmp eq i32 %38, 4
  br i1 %cmp59, label %cond.true61, label %cond.false63

cond.true61:                                      ; preds = %if.then57
  %39 = load i64, ptr %rtc, align 8
  %and62 = and i64 %39, 4294967295
  br label %cond.end64

cond.false63:                                     ; preds = %if.then57
  %40 = load i64, ptr %rtc, align 8
  br label %cond.end64

cond.end64:                                       ; preds = %cond.false63, %cond.true61
  %cond65 = phi i64 [ %and62, %cond.true61 ], [ %40, %cond.false63 ]
  store i64 %cond65, ptr %retval, align 8
  br label %return

if.else66:                                        ; preds = %if.else53
  %41 = load i64, ptr %addr.addr, align 8
  %42 = load ptr, ptr %mtimer, align 8
  %time_base67 = getelementptr inbounds %struct.RISCVAclintMTimerState, ptr %42, i32 0, i32 8
  %43 = load i32, ptr %time_base67, align 4
  %add68 = add i32 %43, 4
  %conv69 = zext i32 %add68 to i64
  %cmp70 = icmp eq i64 %41, %conv69
  br i1 %cmp70, label %if.then72, label %if.end76

if.then72:                                        ; preds = %if.else66
  %44 = load ptr, ptr %mtimer, align 8
  %call73 = call i64 @cpu_riscv_read_rtc(ptr noundef %44)
  %shr74 = lshr i64 %call73, 32
  %and75 = and i64 %shr74, 4294967295
  store i64 %and75, ptr %retval, align 8
  br label %return

if.end76:                                         ; preds = %if.else66
  br label %if.end77

if.end77:                                         ; preds = %if.end76
  br label %if.end78

if.end78:                                         ; preds = %if.end77, %if.end52
  br label %do.body79

do.body79:                                        ; preds = %if.end78
  %call80 = call zeroext i1 @qemu_loglevel_mask(i32 noundef 1024)
  %lnot81 = xor i1 %call80, true
  %lnot83 = xor i1 %lnot81, true
  %lnot.ext84 = zext i1 %lnot83 to i32
  %conv85 = sext i32 %lnot.ext84 to i64
  %tobool86 = icmp ne i64 %conv85, 0
  br i1 %tobool86, label %if.then87, label %if.end89

if.then87:                                        ; preds = %do.body79
  %45 = load i64, ptr %addr.addr, align 8
  %conv88 = trunc i64 %45 to i32
  call void (ptr, ...) @qemu_log(ptr noundef @.str.23, i32 noundef %conv88)
  br label %if.end89

if.end89:                                         ; preds = %if.then87, %do.body79
  br label %do.end90

do.end90:                                         ; preds = %if.end89
  store i64 0, ptr %retval, align 8
  br label %return

return:                                           ; preds = %do.end90, %if.then72, %cond.end64, %do.end51, %if.then33, %cond.end27
  %46 = load i64, ptr %retval, align 8
  ret i64 %46
}