; Function Attrs: nounwind sspstrong uwtable
define internal i64 @riscv_aclint_mtimer_read(ptr noundef readonly captures(none) %opaque, i64 noundef %addr, i32 noundef %size) #0 {
entry:
  %timecmp_base = getelementptr inbounds nuw i8, ptr %opaque, i64 1128
  %0 = load i32, ptr %timecmp_base, align 8
  %conv = zext i32 %0 to i64
  %cmp.not = icmp ult i64 %addr, %conv
  br i1 %cmp.not, label %if.else53, label %land.lhs.true

land.lhs.true:                                    ; preds = %entry
  %num_harts = getelementptr inbounds nuw i8, ptr %opaque, i64 1124
  %1 = load i32, ptr %num_harts, align 4
  %shl = shl i32 %1, 3
  %add = add i32 %shl, %0
  %conv3 = zext i32 %add to i64
  %cmp4 = icmp ult i64 %addr, %conv3
  br i1 %cmp4, label %if.then, label %if.else53

if.then:                                          ; preds = %land.lhs.true
  %hartid_base = getelementptr inbounds nuw i8, ptr %opaque, i64 1120
  %2 = load i32, ptr %hartid_base, align 16
  %conv6 = zext i32 %2 to i64
  %sub = sub nsw i64 %addr, %conv
  %shr = lshr i64 %sub, 3
  %add9 = add nuw nsw i64 %shr, %conv6
  %call = tail call ptr @cpu_by_arch_id(i64 noundef %add9) #6
  %tobool.not = icmp eq ptr %call, null
  %add.ptr.i = getelementptr i8, ptr %call, i64 10176
  %3 = icmp eq ptr %add.ptr.i, null
  %or.cond = or i1 %tobool.not, %3
  br i1 %or.cond, label %do.body, label %if.else

do.body:                                          ; preds = %if.then
  %4 = load i32, ptr @qemu_loglevel, align 4
  %and.i = and i32 %4, 2048
  %cmp.i.not = icmp eq i32 %and.i, 0
  br i1 %cmp.i.not, label %do.body79, label %if.then17

if.then17:                                        ; preds = %do.body
  tail call void (ptr, ...) @qemu_log(ptr noundef nonnull @.str.22, i64 noundef %add9) #6
  br label %do.body79

if.else:                                          ; preds = %if.then
  %and = and i64 %addr, 7
  switch i64 %and, label %do.body40 [
    i64 0, label %if.then20
    i64 4, label %if.then33
  ]

if.then20:                                        ; preds = %if.else
  %timecmp21 = getelementptr inbounds nuw i8, ptr %opaque, i64 824
  %5 = load ptr, ptr %timecmp21, align 8
  %arrayidx = getelementptr i64, ptr %5, i64 %add9
  %6 = load i64, ptr %arrayidx, align 8
  %cmp22 = icmp eq i32 %size, 4
  %and25 = and i64 %6, 4294967295
  %cond28 = select i1 %cmp22, i64 %and25, i64 %6
  br label %return

if.then33:                                        ; preds = %if.else
  %timecmp35 = getelementptr inbounds nuw i8, ptr %opaque, i64 824
  %7 = load ptr, ptr %timecmp35, align 8
  %arrayidx36 = getelementptr i64, ptr %7, i64 %add9
  %8 = load i64, ptr %arrayidx36, align 8
  %shr37 = lshr i64 %8, 32
  br label %return

do.body40:                                        ; preds = %if.else
  %9 = load i32, ptr @qemu_loglevel, align 4
  %and.i26 = and i32 %9, 1024
  %cmp.i27.not = icmp eq i32 %and.i26, 0
  br i1 %cmp.i27.not, label %return, label %if.then48

if.then48:                                        ; preds = %do.body40
  %conv49 = trunc nuw i64 %addr to i32
  tail call void (ptr, ...) @qemu_log(ptr noundef nonnull @.str.23, i32 noundef %conv49) #6
  br label %return

if.else53:                                        ; preds = %land.lhs.true, %entry
  %time_base = getelementptr inbounds nuw i8, ptr %opaque, i64 1132
  %10 = load i32, ptr %time_base, align 4
  %conv54 = zext i32 %10 to i64
  %cmp55 = icmp eq i64 %addr, %conv54
  br i1 %cmp55, label %if.then57, label %if.else66

if.then57:                                        ; preds = %if.else53
  %timebase_freq.i = getelementptr inbounds nuw i8, ptr %opaque, i64 1140
  %11 = load i32, ptr %timebase_freq.i, align 4
  %call.i.i = tail call i64 @qemu_clock_get_ns(i32 noundef 1) #6
  %conv.i.i.i = zext i64 %call.i.i to i128
  %conv1.i.i.i = zext i32 %11 to i128
  %mul.i.i.i = mul nuw nsw i128 %conv.i.i.i, %conv1.i.i.i
  %div.i.i.i = udiv i128 %mul.i.i.i, 1000000000
  %conv3.i.i.i = trunc i128 %div.i.i.i to i64
  %time_delta.i = getelementptr inbounds nuw i8, ptr %opaque, i64 816
  %12 = load i64, ptr %time_delta.i, align 16
  %add.i = add i64 %12, %conv3.i.i.i
  %cmp59 = icmp eq i32 %size, 4
  %and62 = and i64 %add.i, 4294967295
  %cond65 = select i1 %cmp59, i64 %and62, i64 %add.i
  br label %return

if.else66:                                        ; preds = %if.else53
  %add68 = add i32 %10, 4
  %conv69 = zext i32 %add68 to i64
  %cmp70 = icmp eq i64 %addr, %conv69
  br i1 %cmp70, label %if.then72, label %do.body79

if.then72:                                        ; preds = %if.else66
  %timebase_freq.i28 = getelementptr inbounds nuw i8, ptr %opaque, i64 1140
  %13 = load i32, ptr %timebase_freq.i28, align 4
  %call.i.i29 = tail call i64 @qemu_clock_get_ns(i32 noundef 1) #6
  %conv.i.i.i30 = zext i64 %call.i.i29 to i128
  %conv1.i.i.i31 = zext i32 %13 to i128
  %mul.i.i.i32 = mul nuw nsw i128 %conv.i.i.i30, %conv1.i.i.i31
  %div.i.i.i33 = udiv i128 %mul.i.i.i32, 1000000000
  %conv3.i.i.i34 = trunc i128 %div.i.i.i33 to i64
  %time_delta.i35 = getelementptr inbounds nuw i8, ptr %opaque, i64 816
  %14 = load i64, ptr %time_delta.i35, align 16
  %add.i36 = add i64 %14, %conv3.i.i.i34
  %shr74 = lshr i64 %add.i36, 32
  br label %return

do.body79:                                        ; preds = %if.then17, %do.body, %if.else66
  %15 = load i32, ptr @qemu_loglevel, align 4
  %and.i37 = and i32 %15, 1024
  %cmp.i38.not = icmp eq i32 %and.i37, 0
  br i1 %cmp.i38.not, label %return, label %if.then87

if.then87:                                        ; preds = %do.body79
  %conv88 = trunc i64 %addr to i32
  tail call void (ptr, ...) @qemu_log(ptr noundef nonnull @.str.23, i32 noundef %conv88) #6
  br label %return

return:                                           ; preds = %if.then87, %do.body79, %if.then48, %do.body40, %if.then72, %if.then57, %if.then33, %if.then20
  %retval.0 = phi i64 [ %cond28, %if.then20 ], [ %shr37, %if.then33 ], [ %cond65, %if.then57 ], [ %shr74, %if.then72 ], [ 0, %do.body40 ], [ 0, %if.then48 ], [ 0, %do.body79 ], [ 0, %if.then87 ]
  ret i64 %retval.0
}